; Function Attrs: nounwind uwtable
define ptr @l_Array_forIn_x27Unsafe_loop___at_Lake_LeanExe_recBuildExe___spec__3___boxed(ptr noundef %0, ptr noundef %1, ptr noundef %2, ptr noundef %3, ptr noundef %4, ptr noundef %5, ptr noundef %6, ptr noundef %7, ptr noundef %8, ptr noundef %9, ptr noundef %10, ptr noundef %11, ptr noundef %12, ptr noundef %13, ptr noundef %14) local_unnamed_addr #0 {
  %16 = ptrtoint ptr %0 to i64
  %17 = lshr i64 %16, 1
  %18 = trunc i64 %17 to i8
  %19 = and i64 %16, 1
  %.not = icmp eq i64 %19, 0
  br i1 %.not, label %20, label %lean_dec.exit33

20:                                               ; preds = %15
  %21 = load i32, ptr %0, align 4, !tbaa !4
  %22 = icmp sgt i32 %21, 1
  br i1 %22, label %23, label %25, !prof !9

23:                                               ; preds = %20
  %24 = add nsw i32 %21, -1
  store i32 %24, ptr %0, align 4, !tbaa !4
  br label %lean_dec.exit33

25:                                               ; preds = %20
  %.not.i = icmp eq i32 %21, 0
  br i1 %.not.i, label %lean_dec.exit33, label %26

26:                                               ; preds = %25
  tail call void @lean_dec_ref_cold(ptr noundef nonnull %0) #6
  br label %lean_dec.exit33

lean_dec.exit33:                                  ; preds = %26, %25, %23, %15
  %27 = getelementptr i8, ptr %2, i64 8
  %.val49 = load i64, ptr %27, align 8, !tbaa !12
  %28 = ptrtoint ptr %2 to i64
  %29 = and i64 %28, 1
  %.not50 = icmp eq i64 %29, 0
  br i1 %.not50, label %30, label %lean_dec.exit32

30:                                               ; preds = %lean_dec.exit33
  %31 = load i32, ptr %2, align 4, !tbaa !4
  %32 = icmp sgt i32 %31, 1
  br i1 %32, label %33, label %35, !prof !9

33:                                               ; preds = %30
  %34 = add nsw i32 %31, -1
  store i32 %34, ptr %2, align 4, !tbaa !4
  br label %lean_dec.exit32

35:                                               ; preds = %30
  %.not.i34 = icmp eq i32 %31, 0
  br i1 %.not.i34, label %lean_dec.exit32, label %36

36:                                               ; preds = %35
  tail call void @lean_dec_ref_cold(ptr noundef nonnull %2) #6
  br label %lean_dec.exit32

lean_dec.exit32:                                  ; preds = %36, %35, %33, %lean_dec.exit33
  %37 = getelementptr i8, ptr %6, i64 8
  %.val48 = load i64, ptr %37, align 8, !tbaa !12
  %38 = ptrtoint ptr %6 to i64
  %39 = and i64 %38, 1
  %.not51 = icmp eq i64 %39, 0
  br i1 %.not51, label %40, label %lean_dec.exit31

40:                                               ; preds = %lean_dec.exit32
  %41 = load i32, ptr %6, align 4, !tbaa !4
  %42 = icmp sgt i32 %41, 1
  br i1 %42, label %43, label %45, !prof !9

43:                                               ; preds = %40
  %44 = add nsw i32 %41, -1
  store i32 %44, ptr %6, align 4, !tbaa !4
  br label %lean_dec.exit31

45:                                               ; preds = %40
  %.not.i36 = icmp eq i32 %41, 0
  br i1 %.not.i36, label %lean_dec.exit31, label %46

46:                                               ; preds = %45
  tail call void @lean_dec_ref_cold(ptr noundef nonnull %6) #6
  br label %lean_dec.exit31

lean_dec.exit31:                                  ; preds = %46, %45, %43, %lean_dec.exit32
  %47 = getelementptr i8, ptr %7, i64 8
  %.val = load i64, ptr %47, align 8, !tbaa !12
  %48 = ptrtoint ptr %7 to i64
  %49 = and i64 %48, 1
  %.not52 = icmp eq i64 %49, 0
  br i1 %.not52, label %50, label %lean_dec.exit30

50:                                               ; preds = %lean_dec.exit31
  %51 = load i32, ptr %7, align 4, !tbaa !4
  %52 = icmp sgt i32 %51, 1
  br i1 %52, label %53, label %55, !prof !9

53:                                               ; preds = %50
  %54 = add nsw i32 %51, -1
  store i32 %54, ptr %7, align 4, !tbaa !4
  br label %lean_dec.exit30

55:                                               ; preds = %50
  %.not.i38 = icmp eq i32 %51, 0
  br i1 %.not.i38, label %lean_dec.exit30, label %56

56:                                               ; preds = %55
  tail call void @lean_dec_ref_cold(ptr noundef nonnull %7) #6
  br label %lean_dec.exit30

lean_dec.exit30:                                  ; preds = %56, %55, %53, %lean_dec.exit31
  %57 = tail call ptr @l_Array_forIn_x27Unsafe_loop___at_Lake_LeanExe_recBuildExe___spec__3(i8 noundef zeroext %18, ptr poison, i64 noundef %.val49, ptr poison, ptr poison, ptr noundef %5, i64 noundef %.val48, i64 noundef %.val, ptr noundef %8, ptr noundef %9, ptr noundef %10, ptr noundef %11, ptr noundef %12, ptr noundef %13, ptr noundef %14)
  %58 = ptrtoint ptr %5 to i64
  %59 = and i64 %58, 1
  %.not53 = icmp eq i64 %59, 0
  br i1 %.not53, label %60, label %lean_dec.exit29

60:                                               ; preds = %lean_dec.exit30
  %61 = load i32, ptr %5, align 4, !tbaa !4
  %62 = icmp sgt i32 %61, 1
  br i1 %62, label %63, label %65, !prof !9

63:                                               ; preds = %60
  %64 = add nsw i32 %61, -1
  store i32 %64, ptr %5, align 4, !tbaa !4
  br label %lean_dec.exit29

65:                                               ; preds = %60
  %.not.i40 = icmp eq i32 %61, 0
  br i1 %.not.i40, label %lean_dec.exit29, label %66

66:                                               ; preds = %65
  tail call void @lean_dec_ref_cold(ptr noundef nonnull %5) #6
  br label %lean_dec.exit29

lean_dec.exit29:                                  ; preds = %66, %65, %63, %lean_dec.exit30
  %67 = ptrtoint ptr %4 to i64
  %68 = and i64 %67, 1
  %.not54 = icmp eq i64 %68, 0
  br i1 %.not54, label %69, label %lean_dec.exit28

69:                                               ; preds = %lean_dec.exit29
  %70 = load i32, ptr %4, align 4, !tbaa !4
  %71 = icmp sgt i32 %70, 1
  br i1 %71, label %72, label %74, !prof !9

72:                                               ; preds = %69
  %73 = add nsw i32 %70, -1
  store i32 %73, ptr %4, align 4, !tbaa !4
  br label %lean_dec.exit28

74:                                               ; preds = %69
  %.not.i42 = icmp eq i32 %70, 0
  br i1 %.not.i42, label %lean_dec.exit28, label %75

75:                                               ; preds = %74
  tail call void @lean_dec_ref_cold(ptr noundef nonnull %4) #6
  br label %lean_dec.exit28

lean_dec.exit28:                                  ; preds = %75, %74, %72, %lean_dec.exit29
  %76 = ptrtoint ptr %3 to i64
  %77 = and i64 %76, 1
  %.not55 = icmp eq i64 %77, 0
  br i1 %.not55, label %78, label %lean_dec.exit27

78:                                               ; preds = %lean_dec.exit28
  %79 = load i32, ptr %3, align 4, !tbaa !4
  %80 = icmp sgt i32 %79, 1
  br i1 %80, label %81, label %83, !prof !9

81:                                               ; preds = %78
  %82 = add nsw i32 %79, -1
  store i32 %82, ptr %3, align 4, !tbaa !4
  br label %lean_dec.exit27

83:                                               ; preds = %78
  %.not.i44 = icmp eq i32 %79, 0
  br i1 %.not.i44, label %lean_dec.exit27, label %84

84:                                               ; preds = %83
  tail call void @lean_dec_ref_cold(ptr noundef nonnull %3) #6
  br label %lean_dec.exit27

lean_dec.exit27:                                  ; preds = %84, %83, %81, %lean_dec.exit28
  %85 = ptrtoint ptr %1 to i64
  %86 = and i64 %85, 1
  %.not56 = icmp eq i64 %86, 0
  br i1 %.not56, label %87, label %lean_dec.exit

87:                                               ; preds = %lean_dec.exit27
  %88 = load i32, ptr %1, align 4, !tbaa !4
  %89 = icmp sgt i32 %88, 1
  br i1 %89, label %90, label %92, !prof !9

90:                                               ; preds = %87
  %91 = add nsw i32 %88, -1
  store i32 %91, ptr %1, align 4, !tbaa !4
  br label %lean_dec.exit

92:                                               ; preds = %87
  %.not.i46 = icmp eq i32 %88, 0
  br i1 %.not.i46, label %lean_dec.exit, label %93

93:                                               ; preds = %92
  tail call void @lean_dec_ref_cold(ptr noundef nonnull %1) #6
  br label %lean_dec.exit

lean_dec.exit:                                    ; preds = %93, %92, %90, %lean_dec.exit27
  ret ptr %57
}